target datalayout = "e-m:e-p270:32:32-p271:32:32-p272:64:64-i64:64-i128:128-f80:128-n8:16:32:64-S128"
target triple = "x86_64-pc-linux-gnu"

%struct.revision_sources = type { i32, i32, i32, ptr }

; Function Attrs: nounwind uwtable
define dso_local void @clear_revision_sources(ptr noundef %0) #0 {
  %2 = alloca ptr, align 8
  %3 = alloca i32, align 4
  store ptr %0, ptr %2, align 8, !tbaa !4
  call void @llvm.lifetime.start.p0(i64 4, ptr %3) #12
  store i32 0, ptr %3, align 4, !tbaa !9
  br label %4

4:                                                ; preds = %18, %1
  %5 = load i32, ptr %3, align 4, !tbaa !9
  %6 = load ptr, ptr %2, align 8, !tbaa !4
  %7 = getelementptr inbounds nuw %struct.revision_sources, ptr %6, i32 0, i32 2
  %8 = load i32, ptr %7, align 8, !tbaa !15
  %9 = icmp ult i32 %5, %8
  br i1 %9, label %10, label %21

10:                                               ; preds = %4
  %11 = load ptr, ptr %2, align 8, !tbaa !4
  %12 = getelementptr inbounds nuw %struct.revision_sources, ptr %11, i32 0, i32 3
  %13 = load ptr, ptr %12, align 8, !tbaa !16
  %14 = load i32, ptr %3, align 4, !tbaa !9
  %15 = zext i32 %14 to i64
  %16 = getelementptr inbounds nuw ptr, ptr %13, i64 %15
  %17 = load ptr, ptr %16, align 8, !tbaa !17
  call void @free(ptr noundef %17) #12
  br label %18

18:                                               ; preds = %10
  %19 = load i32, ptr %3, align 4, !tbaa !9
  %20 = add i32 %19, 1
  store i32 %20, ptr %3, align 4, !tbaa !9
  br label %4, !llvm.loop !19

21:                                               ; preds = %4
  %22 = load ptr, ptr %2, align 8, !tbaa !4
  %23 = getelementptr inbounds nuw %struct.revision_sources, ptr %22, i32 0, i32 2
  store i32 0, ptr %23, align 8, !tbaa !15
  br label %24

24:                                               ; preds = %21
  %25 = load ptr, ptr %2, align 8, !tbaa !4
  %26 = getelementptr inbounds nuw %struct.revision_sources, ptr %25, i32 0, i32 3
  %27 = load ptr, ptr %26, align 8, !tbaa !16
  call void @free(ptr noundef %27) #12
  %28 = load ptr, ptr %2, align 8, !tbaa !4
  %29 = getelementptr inbounds nuw %struct.revision_sources, ptr %28, i32 0, i32 3
  store ptr null, ptr %29, align 8, !tbaa !16
  br label %30

30:                                               ; preds = %24
  br label %31

31:                                               ; preds = %30
  call void @llvm.lifetime.end.p0(i64 4, ptr %3) #12
  ret void
}